target datalayout = "e-m:e-p270:32:32-p271:32:32-p272:64:64-i64:64-i128:128-f80:128-n8:16:32:64-S128"
target triple = "x86_64-pc-linux-gnu"

%struct.SDL_HIDAPI_Device = type { ptr, ptr, ptr, ptr, i16, i16, i16, ptr, %struct.SDL_GUID, i32, i32, i32, i32, i16, i16, i8, i32, i32, i32, ptr, ptr, ptr, ptr, %struct.SDL_AtomicInt, i32, ptr, i8, i8, i8, ptr, i32, ptr, ptr }
%struct.SDL_GUID = type { [16 x i8] }
%struct.SDL_AtomicInt = type { i32 }
%struct.SDL_DriverSteam_Context = type { ptr, i8, i8, i32, i64, i64, %struct.SteamControllerPacketAssembler, %struct.SteamControllerStateInternal_t, %struct.SteamControllerStateInternal_t }
%struct.SteamControllerPacketAssembler = type { [145 x i8], i32, i8 }
%struct.SteamControllerStateInternal_t = type { i32, i32, i64, i16, i16, i16, i16, i16, i16, i16, i16, i16, i16, i16, i16, i16, i16, i16, i16, i16, i16, float, float, float, float, i16, i16, i16, i16, i16, i16, [2 x i16], [2 x i16] }

@.str.2 = private unnamed_addr constant [17 x i8] c"Steam Controller\00", align 1
@.str.3 = private unnamed_addr constant [52 x i8] c"Failed to send ID_DONGLE_GET_WIRELESS_STATE request\00", align 1
@.str.4 = private unnamed_addr constant [42 x i8] c"SDL_JOYSTICK_HIDAPI_STEAM_PAIRING_ENABLED\00", align 1

; Function Attrs: nounwind uwtable
define internal zeroext i8 @GetSegmentHeader(i32 noundef %0, i1 noundef zeroext %1) #0 {
  %3 = alloca i32, align 4
  %4 = alloca i8, align 1
  %5 = alloca i8, align 1
  store i32 %0, ptr %3, align 4
  %6 = zext i1 %1 to i8
  store i8 %6, ptr %4, align 1
  call void @llvm.lifetime.start.p0(i64 1, ptr %5) #7
  store i8 -128, ptr %5, align 1
  %7 = load i32, ptr %3, align 4
  %8 = load i8, ptr %5, align 1
  %9 = zext i8 %8 to i32
  %10 = or i32 %9, %7
  %11 = trunc i32 %10 to i8
  store i8 %11, ptr %5, align 1
  %12 = load i8, ptr %4, align 1, !range !3, !noundef !4
  %13 = trunc i8 %12 to i1
  br i1 %13, label %14, label %19

14:                                               ; preds = %2
  %15 = load i8, ptr %5, align 1
  %16 = zext i8 %15 to i32
  %17 = or i32 %16, 64
  %18 = trunc i32 %17 to i8
  store i8 %18, ptr %5, align 1
  br label %19

19:                                               ; preds = %14, %2
  %20 = load i8, ptr %5, align 1
  call void @llvm.lifetime.end.p0(i64 1, ptr %5) #7
  ret i8 %20
}

; Function Attrs: nounwind uwtable
define internal i32 @ReadSteamController(ptr noundef %0, ptr noundef %1, i32 noundef %2) #0 {
  %4 = alloca ptr, align 8
  %5 = alloca ptr, align 8
  %6 = alloca i32, align 4
  store ptr %0, ptr %4, align 8
  store ptr %1, ptr %5, align 8
  store i32 %2, ptr %6, align 4
  %7 = load ptr, ptr %5, align 8
  %8 = load i32, ptr %6, align 4
  %9 = sext i32 %8 to i64
  call void @llvm.memset.p0.i64(ptr align 1 %7, i8 0, i64 %9, i1 false)
  %10 = load ptr, ptr %5, align 8
  %11 = getelementptr inbounds i8, ptr %10, i64 0
  store i8 3, ptr %11, align 1
  %12 = load ptr, ptr %4, align 8
  %13 = load ptr, ptr %5, align 8
  %14 = load i32, ptr %6, align 4
  %15 = sext i32 %14 to i64
  %16 = call i32 @SDL_hid_read_REAL(ptr noundef %12, ptr noundef %13, i64 noundef %15)
  ret i32 %16
}

; Function Attrs: nounwind uwtable
define internal i32 @SetFeatureReport(ptr noundef %0, ptr noundef %1, i32 noundef %2) #0 {
  %4 = alloca i32, align 4
  %5 = alloca ptr, align 8
  %6 = alloca ptr, align 8
  %7 = alloca i32, align 4
  %8 = alloca i32, align 4
  %9 = alloca i32, align 4
  %10 = alloca [20 x i8], align 16
  %11 = alloca ptr, align 8
  %12 = alloca i32, align 4
  %13 = alloca i32, align 4
  %14 = alloca i32, align 4
  store ptr %0, ptr %5, align 8
  store ptr %1, ptr %6, align 8
  store i32 %2, ptr %7, align 4
  call void @llvm.lifetime.start.p0(i64 4, ptr %8) #7
  store i32 -1, ptr %8, align 4
  %15 = load ptr, ptr %5, align 8
  %16 = getelementptr inbounds nuw %struct.SDL_HIDAPI_Device, ptr %15, i32 0, i32 15
  %17 = load i8, ptr %16, align 4, !range !3, !noundef !4
  %18 = trunc i8 %17 to i1
  br i1 %18, label %19, label %68

19:                                               ; preds = %3
  call void @llvm.lifetime.start.p0(i64 4, ptr %9) #7
  store i32 0, ptr %9, align 4
  call void @llvm.lifetime.start.p0(i64 20, ptr %10) #7
  call void @llvm.lifetime.start.p0(i64 8, ptr %11) #7
  %20 = load ptr, ptr %6, align 8
  %21 = getelementptr inbounds i8, ptr %20, i64 1
  store ptr %21, ptr %11, align 8
  %22 = load i32, ptr %7, align 4
  %23 = icmp slt i32 %22, 1
  br i1 %23, label %24, label %25

24:                                               ; preds = %19
  store i32 -1, ptr %4, align 4
  store i32 1, ptr %12, align 4
  br label %65

25:                                               ; preds = %19
  %26 = load i32, ptr %7, align 4
  %27 = add nsw i32 %26, -1
  store i32 %27, ptr %7, align 4
  br label %28

28:                                               ; preds = %37, %25
  %29 = load i32, ptr %7, align 4
  %30 = icmp sgt i32 %29, 0
  br i1 %30, label %31, label %64

31:                                               ; preds = %28
  call void @llvm.lifetime.start.p0(i64 4, ptr %13) #7
  %32 = load i32, ptr %7, align 4
  %33 = icmp sgt i32 %32, 18
  br i1 %33, label %34, label %35

34:                                               ; preds = %31
  br label %37

35:                                               ; preds = %31
  %36 = load i32, ptr %7, align 4
  br label %37

37:                                               ; preds = %35, %34
  %38 = phi i32 [ 18, %34 ], [ %36, %35 ]
  store i32 %38, ptr %13, align 4
  %39 = load i32, ptr %13, align 4
  %40 = load i32, ptr %7, align 4
  %41 = sub nsw i32 %40, %39
  store i32 %41, ptr %7, align 4
  %42 = getelementptr inbounds [20 x i8], ptr %10, i64 0, i64 0
  call void @llvm.memset.p0.i64(ptr align 16 %42, i8 0, i64 20, i1 false)
  %43 = getelementptr inbounds [20 x i8], ptr %10, i64 0, i64 0
  store i8 3, ptr %43, align 16
  %44 = load i32, ptr %9, align 4
  %45 = load i32, ptr %7, align 4
  %46 = icmp eq i32 %45, 0
  %47 = call zeroext i8 @GetSegmentHeader(i32 noundef %44, i1 noundef zeroext %46)
  %48 = getelementptr inbounds [20 x i8], ptr %10, i64 0, i64 1
  store i8 %47, ptr %48, align 1
  %49 = getelementptr inbounds [20 x i8], ptr %10, i64 0, i64 2
  %50 = load ptr, ptr %11, align 8
  %51 = load i32, ptr %13, align 4
  %52 = sext i32 %51 to i64
  call void @llvm.memcpy.p0.p0.i64(ptr align 2 %49, ptr align 1 %50, i64 %52, i1 false)
  %53 = load i32, ptr %13, align 4
  %54 = load ptr, ptr %11, align 8
  %55 = sext i32 %53 to i64
  %56 = getelementptr inbounds i8, ptr %54, i64 %55
  store ptr %56, ptr %11, align 8
  %57 = load i32, ptr %9, align 4
  %58 = add nsw i32 %57, 1
  store i32 %58, ptr %9, align 4
  %59 = load ptr, ptr %5, align 8
  %60 = getelementptr inbounds nuw %struct.SDL_HIDAPI_Device, ptr %59, i32 0, i32 22
  %61 = load ptr, ptr %60, align 8
  %62 = getelementptr inbounds [20 x i8], ptr %10, i64 0, i64 0
  %63 = call i32 @SDL_hid_send_feature_report_REAL(ptr noundef %61, ptr noundef %62, i64 noundef 20)
  store i32 %63, ptr %8, align 4
  call void @llvm.lifetime.end.p0(i64 4, ptr %13) #7
  br label %28, !llvm.loop !7

64:                                               ; preds = %28
  store i32 0, ptr %12, align 4
  br label %65

65:                                               ; preds = %64, %24
  call void @llvm.lifetime.end.p0(i64 8, ptr %11) #7
  call void @llvm.lifetime.end.p0(i64 20, ptr %10) #7
  call void @llvm.lifetime.end.p0(i64 4, ptr %9) #7
  %66 = load i32, ptr %12, align 4
  switch i32 %66, label %90 [
    i32 0, label %67
  ]

67:                                               ; preds = %65
  br label %88

68:                                               ; preds = %3
  call void @llvm.lifetime.start.p0(i64 4, ptr %14) #7
  store i32 0, ptr %14, align 4
  br label %69

69:                                               ; preds = %83, %68
  %70 = load i32, ptr %14, align 4
  %71 = icmp slt i32 %70, 50
  br i1 %71, label %73, label %72

72:                                               ; preds = %69
  store i32 4, ptr %12, align 4
  br label %86

73:                                               ; preds = %69
  %74 = load ptr, ptr %5, align 8
  %75 = getelementptr inbounds nuw %struct.SDL_HIDAPI_Device, ptr %74, i32 0, i32 22
  %76 = load ptr, ptr %75, align 8
  %77 = load ptr, ptr %6, align 8
  %78 = call i32 @SDL_hid_send_feature_report_REAL(ptr noundef %76, ptr noundef %77, i64 noundef 65)
  store i32 %78, ptr %8, align 4
  %79 = load i32, ptr %8, align 4
  %80 = icmp sge i32 %79, 0
  br i1 %80, label %81, label %82

81:                                               ; preds = %73
  store i32 4, ptr %12, align 4
  br label %86

82:                                               ; preds = %73
  call void @SDL_DelayNS_REAL(i64 noundef 500000)
  br label %83

83:                                               ; preds = %82
  %84 = load i32, ptr %14, align 4
  %85 = add nsw i32 %84, 1
  store i32 %85, ptr %14, align 4
  br label %69, !llvm.loop !8

86:                                               ; preds = %81, %72
  call void @llvm.lifetime.end.p0(i64 4, ptr %14) #7
  br label %87

87:                                               ; preds = %86
  br label %88

88:                                               ; preds = %87, %67
  %89 = load i32, ptr %8, align 4
  store i32 %89, ptr %4, align 4
  store i32 1, ptr %12, align 4
  br label %90

90:                                               ; preds = %88, %65
  call void @llvm.lifetime.end.p0(i64 4, ptr %8) #7
  %91 = load i32, ptr %4, align 4
  ret i32 %91
}

; Function Attrs: nounwind uwtable
define internal zeroext i1 @IsDongle(i16 noundef zeroext %0) #0 {
  %2 = alloca i16, align 2
  store i16 %0, ptr %2, align 2
  %3 = load i16, ptr %2, align 2
  %4 = zext i16 %3 to i32
  %5 = icmp eq i32 %4, 4418
  ret i1 %5
}

; Function Attrs: nounwind uwtable
define internal zeroext i1 @HIDAPI_DriverSteam_InitDevice(ptr noundef %0) #0 {
  %2 = alloca i1, align 1
  %3 = alloca ptr, align 8
  %4 = alloca ptr, align 8
  %5 = alloca i32, align 4
  %6 = alloca [65 x i8], align 16
  %7 = alloca i32, align 4
  %8 = alloca i32, align 4
  %9 = alloca [128 x i8], align 16
  store ptr %0, ptr %3, align 8
  call void @llvm.lifetime.start.p0(i64 8, ptr %4) #7
  %10 = call noalias ptr @SDL_calloc_REAL(i64 noundef 1, i64 noundef 368) #8
  store ptr %10, ptr %4, align 8
  %11 = load ptr, ptr %4, align 8
  %12 = icmp ne ptr %11, null
  br i1 %12, label %14, label %13

13:                                               ; preds = %1
  store i1 false, ptr %2, align 1
  store i32 1, ptr %5, align 4
  br label %143

14:                                               ; preds = %1
  %15 = load ptr, ptr %3, align 8
  %16 = load ptr, ptr %4, align 8
  %17 = getelementptr inbounds nuw %struct.SDL_DriverSteam_Context, ptr %16, i32 0, i32 0
  store ptr %15, ptr %17, align 8
  %18 = load ptr, ptr %4, align 8
  %19 = load ptr, ptr %3, align 8
  %20 = getelementptr inbounds nuw %struct.SDL_HIDAPI_Device, ptr %19, i32 0, i32 20
  store ptr %18, ptr %20, align 8
  %21 = load ptr, ptr %3, align 8
  call void @HIDAPI_SetDeviceName(ptr noundef %21, ptr noundef @.str.2)
  %22 = load ptr, ptr %3, align 8
  %23 = getelementptr inbounds nuw %struct.SDL_HIDAPI_Device, ptr %22, i32 0, i32 5
  %24 = load i16, ptr %23, align 2
  %25 = call zeroext i1 @IsDongle(i16 noundef zeroext %24)
  br i1 %25, label %26, label %131

26:                                               ; preds = %14
  call void @llvm.lifetime.start.p0(i64 65, ptr %6) #7
  call void @llvm.lifetime.start.p0(i64 4, ptr %7) #7
  %27 = getelementptr inbounds [65 x i8], ptr %6, i64 0, i64 0
  store i8 0, ptr %27, align 16
  %28 = getelementptr inbounds [65 x i8], ptr %6, i64 0, i64 1
  store i8 -76, ptr %28, align 1
  %29 = load ptr, ptr %3, align 8
  %30 = getelementptr inbounds [65 x i8], ptr %6, i64 0, i64 0
  %31 = call i32 @SetFeatureReport(ptr noundef %29, ptr noundef %30, i32 noundef 2)
  store i32 %31, ptr %7, align 4
  %32 = load i32, ptr %7, align 4
  %33 = icmp slt i32 %32, 0
  br i1 %33, label %34, label %36

34:                                               ; preds = %26
  %35 = call zeroext i1 (ptr, ...) @SDL_SetError_REAL(ptr noundef @.str.3)
  store i1 %35, ptr %2, align 1
  store i32 1, ptr %5, align 4
  br label %128

36:                                               ; preds = %26
  call void @llvm.lifetime.start.p0(i64 4, ptr %8) #7
  store i32 0, ptr %8, align 4
  br label %37

37:                                               ; preds = %121, %36
  %38 = load i32, ptr %8, align 4
  %39 = icmp slt i32 %38, 5
  br i1 %39, label %41, label %40

40:                                               ; preds = %37
  store i32 2, ptr %5, align 4
  br label %124

41:                                               ; preds = %37
  call void @llvm.lifetime.start.p0(i64 128, ptr %9) #7
  %42 = load ptr, ptr %3, align 8
  %43 = getelementptr inbounds nuw %struct.SDL_HIDAPI_Device, ptr %42, i32 0, i32 22
  %44 = load ptr, ptr %43, align 8
  %45 = getelementptr inbounds [128 x i8], ptr %9, i64 0, i64 0
  %46 = call i32 @ReadSteamController(ptr noundef %44, ptr noundef %45, i32 noundef 128)
  store i32 %46, ptr %7, align 4
  %47 = load i32, ptr %7, align 4
  %48 = icmp eq i32 %47, 0
  br i1 %48, label %49, label %50

49:                                               ; preds = %41
  call void @SDL_Delay_REAL(i32 noundef 1)
  store i32 4, ptr %5, align 4
  br label %118

50:                                               ; preds = %41
  %51 = load i32, ptr %7, align 4
  %52 = icmp slt i32 %51, 0
  br i1 %52, label %53, label %54

53:                                               ; preds = %50
  store i32 2, ptr %5, align 4
  br label %118

54:                                               ; preds = %50
  %55 = load i32, ptr %7, align 4
  %56 = icmp sge i32 %55, 5
  br i1 %56, label %57, label %85

57:                                               ; preds = %54
  %58 = getelementptr inbounds [128 x i8], ptr %9, i64 0, i64 0
  %59 = load i8, ptr %58, align 16
  %60 = zext i8 %59 to i32
  %61 = icmp eq i32 %60, 1
  br i1 %61, label %62, label %85

62:                                               ; preds = %57
  %63 = getelementptr inbounds [128 x i8], ptr %9, i64 0, i64 1
  %64 = load i8, ptr %63, align 1
  %65 = zext i8 %64 to i32
  %66 = icmp eq i32 %65, 0
  br i1 %66, label %67, label %85

67:                                               ; preds = %62
  %68 = getelementptr inbounds [128 x i8], ptr %9, i64 0, i64 2
  %69 = load i8, ptr %68, align 2
  %70 = zext i8 %69 to i32
  %71 = icmp eq i32 %70, 3
  br i1 %71, label %72, label %85

72:                                               ; preds = %67
  %73 = getelementptr inbounds [128 x i8], ptr %9, i64 0, i64 3
  %74 = load i8, ptr %73, align 1
  %75 = zext i8 %74 to i32
  %76 = icmp sge i32 %75, 1
  br i1 %76, label %77, label %85

77:                                               ; preds = %72
  %78 = getelementptr inbounds [128 x i8], ptr %9, i64 0, i64 4
  %79 = load i8, ptr %78, align 4
  %80 = zext i8 %79 to i32
  %81 = icmp ne i32 %80, 1
  br i1 %81, label %82, label %85

82:                                               ; preds = %77
  %83 = load ptr, ptr %4, align 8
  %84 = getelementptr inbounds nuw %struct.SDL_DriverSteam_Context, ptr %83, i32 0, i32 1
  store i8 1, ptr %84, align 8
  store i32 2, ptr %5, align 4
  br label %118

85:                                               ; preds = %77, %72, %67, %62, %57, %54
  %86 = load i32, ptr %7, align 4
  %87 = icmp sge i32 %86, 5
  br i1 %87, label %88, label %116

88:                                               ; preds = %85
  %89 = getelementptr inbounds [128 x i8], ptr %9, i64 0, i64 0
  %90 = load i8, ptr %89, align 16
  %91 = zext i8 %90 to i32
  %92 = icmp eq i32 %91, 1
  br i1 %92, label %93, label %116

93:                                               ; preds = %88
  %94 = getelementptr inbounds [128 x i8], ptr %9, i64 0, i64 1
  %95 = load i8, ptr %94, align 1
  %96 = zext i8 %95 to i32
  %97 = icmp eq i32 %96, 0
  br i1 %97, label %98, label %116

98:                                               ; preds = %93
  %99 = getelementptr inbounds [128 x i8], ptr %9, i64 0, i64 2
  %100 = load i8, ptr %99, align 2
  %101 = zext i8 %100 to i32
  %102 = icmp eq i32 %101, 3
  br i1 %102, label %103, label %116

103:                                              ; preds = %98
  %104 = getelementptr inbounds [128 x i8], ptr %9, i64 0, i64 3
  %105 = load i8, ptr %104, align 1
  %106 = zext i8 %105 to i32
  %107 = icmp sge i32 %106, 1
  br i1 %107, label %108, label %116

108:                                              ; preds = %103
  %109 = getelementptr inbounds [128 x i8], ptr %9, i64 0, i64 4
  %110 = load i8, ptr %109, align 4
  %111 = zext i8 %110 to i32
  %112 = icmp eq i32 %111, 1
  br i1 %112, label %113, label %116

113:                                              ; preds = %108
  %114 = load ptr, ptr %4, align 8
  %115 = getelementptr inbounds nuw %struct.SDL_DriverSteam_Context, ptr %114, i32 0, i32 1
  store i8 0, ptr %115, align 8
  store i32 2, ptr %5, align 4
  br label %118

116:                                              ; preds = %108, %103, %98, %93, %88, %85
  br label %117

117:                                              ; preds = %116
  store i32 0, ptr %5, align 4
  br label %118

118:                                              ; preds = %117, %113, %82, %53, %49
  call void @llvm.lifetime.end.p0(i64 128, ptr %9) #7
  %119 = load i32, ptr %5, align 4
  switch i32 %119, label %124 [
    i32 0, label %120
    i32 4, label %121
  ]

120:                                              ; preds = %118
  br label %121

121:                                              ; preds = %120, %118
  %122 = load i32, ptr %8, align 4
  %123 = add nsw i32 %122, 1
  store i32 %123, ptr %8, align 4
  br label %37, !llvm.loop !5

124:                                              ; preds = %118, %40
  call void @llvm.lifetime.end.p0(i64 4, ptr %8) #7
  br label %125

125:                                              ; preds = %124
  %126 = load ptr, ptr %4, align 8
  %127 = call zeroext i1 @SDL_AddHintCallback_REAL(ptr noundef @.str.4, ptr noundef @SDL_PairingEnabledHintChanged, ptr noundef %126)
  store i32 0, ptr %5, align 4
  br label %128

128:                                              ; preds = %125, %34
  call void @llvm.lifetime.end.p0(i64 4, ptr %7) #7
  call void @llvm.lifetime.end.p0(i64 65, ptr %6) #7
  %129 = load i32, ptr %5, align 4
  switch i32 %129, label %143 [
    i32 0, label %130
  ]

130:                                              ; preds = %128
  br label %134

131:                                              ; preds = %14
  %132 = load ptr, ptr %4, align 8
  %133 = getelementptr inbounds nuw %struct.SDL_DriverSteam_Context, ptr %132, i32 0, i32 1
  store i8 1, ptr %133, align 8
  br label %134

134:                                              ; preds = %131, %130
  %135 = load ptr, ptr %4, align 8
  %136 = getelementptr inbounds nuw %struct.SDL_DriverSteam_Context, ptr %135, i32 0, i32 1
  %137 = load i8, ptr %136, align 8, !range !3, !noundef !4
  %138 = trunc i8 %137 to i1
  br i1 %138, label %139, label %142

139:                                              ; preds = %134
  %140 = load ptr, ptr %3, align 8
  %141 = call zeroext i1 @HIDAPI_JoystickConnected(ptr noundef %140, ptr noundef null)
  store i1 %141, ptr %2, align 1
  store i32 1, ptr %5, align 4
  br label %143

142:                                              ; preds = %134
  store i1 true, ptr %2, align 1
  store i32 1, ptr %5, align 4
  br label %143

143:                                              ; preds = %142, %139, %128, %13
  call void @llvm.lifetime.end.p0(i64 8, ptr %4) #7
  %144 = load i1, ptr %2, align 1
  ret i1 %144
}