; Function Attrs: nounwind uwtable
define internal zeroext i1 @HIDAPI_DriverSteam_InitDevice(ptr noundef %0) #0 {
  %2 = alloca [20 x i8], align 16
  %3 = alloca [65 x i8], align 16
  %4 = alloca [128 x i8], align 16
  %5 = tail call noalias dereferenceable_or_null(368) ptr @SDL_calloc_REAL(i64 noundef 1, i64 noundef 368) #10
  %.not = icmp eq ptr %5, null
  br i1 %.not, label %66, label %6

6:                                                ; preds = %1
  store ptr %0, ptr %5, align 8
  %7 = getelementptr inbounds nuw i8, ptr %0, i64 112
  store ptr %5, ptr %7, align 8
  tail call void @HIDAPI_SetDeviceName(ptr noundef %0, ptr noundef nonnull @.str.2) #9
  %8 = getelementptr inbounds nuw i8, ptr %0, i64 34
  %9 = load i16, ptr %8, align 2
  %10 = icmp eq i16 %9, 4418
  br i1 %10, label %11, label %.thread72

11:                                               ; preds = %6
  call void @llvm.lifetime.start.p0(i64 65, ptr nonnull %3) #9
  store i8 0, ptr %3, align 16
  %12 = getelementptr inbounds nuw i8, ptr %3, i64 1
  store i8 -76, ptr %12, align 1
  %13 = getelementptr inbounds nuw i8, ptr %0, i64 84
  %14 = load i8, ptr %13, align 4, !range !3, !noundef !4
  %15 = trunc nuw i8 %14 to i1
  br i1 %15, label %.lr.ph.i, label %.preheader.i

.preheader.i:                                     ; preds = %11
  %16 = getelementptr inbounds nuw i8, ptr %0, i64 128
  br label %24

.lr.ph.i:                                         ; preds = %11
  call void @llvm.lifetime.start.p0(i64 20, ptr nonnull %2) #9
  %17 = getelementptr inbounds nuw i8, ptr %2, i64 1
  %18 = getelementptr inbounds nuw i8, ptr %2, i64 2
  %19 = getelementptr inbounds nuw i8, ptr %0, i64 128
  call void @llvm.memset.p0.i64(ptr noundef nonnull align 16 dereferenceable(20) %2, i8 0, i64 20, i1 false)
  store i8 3, ptr %2, align 16
  store i8 -64, ptr %17, align 1
  %20 = load i8, ptr %12, align 1
  store i8 %20, ptr %18, align 2
  %21 = load ptr, ptr %19, align 8
  %22 = call i32 @SDL_hid_send_feature_report_REAL(ptr noundef %21, ptr noundef nonnull %2, i64 noundef 20) #9
  call void @llvm.lifetime.end.p0(i64 20, ptr nonnull %2) #9
  %23 = icmp sgt i32 %22, -1
  br i1 %23, label %.critedge.preheader, label %.thread70

24:                                               ; preds = %33, %.preheader.i
  %.034.i = phi i32 [ 0, %.preheader.i ], [ %34, %33 ]
  %25 = load ptr, ptr %16, align 8
  %26 = call i32 @SDL_hid_send_feature_report_REAL(ptr noundef %25, ptr noundef nonnull %3, i64 noundef 65) #9
  %27 = icmp sgt i32 %26, -1
  br i1 %27, label %.critedge.preheader, label %33

.critedge.preheader:                              ; preds = %24, %.lr.ph.i
  %28 = getelementptr inbounds nuw i8, ptr %0, i64 128
  %29 = getelementptr inbounds nuw i8, ptr %4, i64 1
  %30 = getelementptr inbounds nuw i8, ptr %4, i64 2
  %31 = getelementptr inbounds nuw i8, ptr %4, i64 3
  %32 = getelementptr inbounds nuw i8, ptr %4, i64 4
  br label %38

33:                                               ; preds = %24
  call void @SDL_DelayNS_REAL(i64 noundef 500000) #9
  %34 = add nuw nsw i32 %.034.i, 1
  %exitcond.not.i = icmp eq i32 %34, 50
  br i1 %exitcond.not.i, label %36, label %24, !llvm.loop !5

.thread70:                                        ; preds = %.lr.ph.i
  %35 = call zeroext i1 (ptr, ...) @SDL_SetError_REAL(ptr noundef nonnull @.str.3) #9
  call void @llvm.lifetime.end.p0(i64 65, ptr nonnull %3) #9
  br label %66

36:                                               ; preds = %33
  %37 = call zeroext i1 (ptr, ...) @SDL_SetError_REAL(ptr noundef nonnull @.str.3) #9
  call void @llvm.lifetime.end.p0(i64 65, ptr nonnull %3) #9
  br label %66

38:                                               ; preds = %.critedge.preheader, %.critedge
  %.071 = phi i32 [ 0, %.critedge.preheader ], [ %60, %.critedge ]
  call void @llvm.lifetime.start.p0(i64 128, ptr nonnull %4) #9
  %39 = load ptr, ptr %28, align 8
  call void @llvm.memset.p0.i64(ptr noundef nonnull align 1 dereferenceable(127) %29, i8 0, i64 127, i1 false)
  store i8 3, ptr %4, align 16
  %40 = call i32 @SDL_hid_read_REAL(ptr noundef %39, ptr noundef nonnull %4, i64 noundef 128) #9
  %41 = icmp eq i32 %40, 0
  br i1 %41, label %42, label %43

42:                                               ; preds = %38
  call void @SDL_Delay_REAL(i32 noundef 1) #9
  br label %.critedge

43:                                               ; preds = %38
  %44 = icmp slt i32 %40, 0
  br i1 %44, label %.thread, label %45

45:                                               ; preds = %43
  %46 = icmp samesign ugt i32 %40, 4
  %47 = load i8, ptr %4, align 16
  %48 = icmp eq i8 %47, 1
  %or.cond = select i1 %46, i1 %48, i1 false
  %49 = load i8, ptr %29, align 1
  %50 = icmp eq i8 %49, 0
  %or.cond7 = select i1 %or.cond, i1 %50, i1 false
  %51 = load i8, ptr %30, align 2
  %52 = icmp eq i8 %51, 3
  %or.cond11 = select i1 %or.cond7, i1 %52, i1 false
  %53 = load i8, ptr %31, align 1
  %54 = icmp ne i8 %53, 0
  %or.cond15 = select i1 %or.cond11, i1 %54, i1 false
  %55 = load i8, ptr %32, align 4
  %56 = icmp ne i8 %55, 1
  %or.cond19 = select i1 %or.cond15, i1 %56, i1 false
  br i1 %or.cond19, label %.thread.sink.split, label %57

57:                                               ; preds = %45
  %58 = icmp eq i8 %55, 1
  %or.cond39 = select i1 %or.cond15, i1 %58, i1 false
  br i1 %or.cond39, label %.thread.sink.split, label %.critedge

.thread.sink.split:                               ; preds = %57, %45
  %.sink = phi i8 [ 1, %45 ], [ 0, %57 ]
  %59 = getelementptr inbounds nuw i8, ptr %5, i64 8
  store i8 %.sink, ptr %59, align 8
  br label %.thread

.thread:                                          ; preds = %43, %.thread.sink.split
  call void @llvm.lifetime.end.p0(i64 128, ptr nonnull %4) #9
  br label %.loopexit

.critedge:                                        ; preds = %42, %57
  call void @llvm.lifetime.end.p0(i64 128, ptr nonnull %4) #9
  %60 = add nuw nsw i32 %.071, 1
  %exitcond.not = icmp eq i32 %60, 5
  br i1 %exitcond.not, label %.loopexit, label %38, !llvm.loop !7

.thread72:                                        ; preds = %6
  %61 = getelementptr inbounds nuw i8, ptr %5, i64 8
  store i8 1, ptr %61, align 8
  br label %64

.loopexit:                                        ; preds = %.critedge, %.thread
  %62 = call zeroext i1 @SDL_AddHintCallback_REAL(ptr noundef nonnull @.str.4, ptr noundef nonnull @SDL_PairingEnabledHintChanged, ptr noundef nonnull %5) #9
  call void @llvm.lifetime.end.p0(i64 65, ptr nonnull %3) #9
  %.phi.trans.insert = getelementptr inbounds nuw i8, ptr %5, i64 8
  %.pre = load i8, ptr %.phi.trans.insert, align 8, !range !3
  %63 = trunc nuw i8 %.pre to i1
  br i1 %63, label %64, label %66

64:                                               ; preds = %.thread72, %.loopexit
  %65 = call zeroext i1 @HIDAPI_JoystickConnected(ptr noundef nonnull %0, ptr noundef null) #9
  br label %66

66:                                               ; preds = %36, %.thread70, %.loopexit, %1, %64
  %.064 = phi i1 [ %65, %64 ], [ false, %1 ], [ true, %.loopexit ], [ %37, %36 ], [ %35, %.thread70 ]
  ret i1 %.064
}